/*
 * Intel ACPI Component Architecture
 * AML/ASL+ Disassembler version 20230628 (64-bit version)
 * Copyright (c) 2000 - 2023 Intel Corporation
 * 
 * Disassembly of dbgp.dat, Thu Jul 30 10:57:58 2026
 *
 * ACPI Data Table [DBGP]
 *
 * Format: [HexOffset DecimalOffset ByteLength]  FieldName : FieldValue (in hex)
 */

[000h 0000 004h]                   Signature : "DBGP"    [Debug Port Table]
[004h 0004 004h]                Table Length : 00000034
[008h 0008 001h]                    Revision : 01
[009h 0009 001h]                    Checksum : 73
[00Ah 0010 006h]                      Oem ID : "INTEL "
[010h 0016 008h]                Oem Table ID : ""
[018h 0024 004h]                Oem Revision : 00000002
[01Ch 0028 004h]             Asl Compiler ID : "MSFT"
[020h 0032 004h]       Asl Compiler Revision : 0000005F

[024h 0036 001h]              Interface Type : 00
[025h 0037 003h]                    Reserved : 000000

[028h 0040 00Ch]         Debug Port Register : [Generic Address Structure]
[028h 0040 001h]                    Space ID : 01 [SystemIO]
[029h 0041 001h]                   Bit Width : 08
[02Ah 0042 001h]                  Bit Offset : 00
[02Bh 0043 001h]        Encoded Access Width : 00 [Undefined/Legacy]
[02Ch 0044 008h]                     Address : 00000000000003F8


Raw Table Data: Length 52 (0x34)

    0000: 44 42 47 50 34 00 00 00 01 73 49 4E 54 45 4C 20  // DBGP4....sINTEL 
    0010: 00 00 00 00 00 00 00 00 02 00 00 00 4D 53 46 54  // ............MSFT
    0020: 5F 00 00 00 00 00 00 00 01 08 00 00 F8 03 00 00  // _...............
    0030: 00 00 00 00                                      // ....
