/*
 * Intel ACPI Component Architecture
 * AML/ASL+ Disassembler version 20230628 (64-bit version)
 * Copyright (c) 2000 - 2023 Intel Corporation
 * 
 * Disassembly of fidt.dat, Thu Jul 30 10:57:58 2026
 *
 * ACPI Data Table [FIDT]
 *
 * Format: [HexOffset DecimalOffset ByteLength]  FieldName : FieldValue (in hex)
 */

[000h 0000 004h]                   Signature : "FIDT"    
[004h 0004 004h]                Table Length : 0000009C
[008h 0008 001h]                    Revision : 01
[009h 0009 001h]                    Checksum : 4C
[00Ah 0010 006h]                      Oem ID : "ALASKA"
[010h 0016 008h]                Oem Table ID : "A M I"
[018h 0024 004h]                Oem Revision : 01072009
[01Ch 0028 004h]             Asl Compiler ID : "AMI "
[020h 0032 004h]       Asl Compiler Revision : 00010013


**** Unknown ACPI table signature [FIDT]


Raw Table Data: Length 156 (0x9C)

    0000: 46 49 44 54 9C 00 00 00 01 4C 41 4C 41 53 4B 41  // FIDT.....LALASKA
    0010: 41 20 4D 20 49 00 00 00 09 20 07 01 41 4D 49 20  // A M I.... ..AMI 
    0020: 13 00 01 00 24 46 49 44 04 78 00 4B 42 59 4C 4B  // ....$FID.x.KBYLK
    0030: 30 31 00 00 ED 2A EC 1B 3B AA A7 41 B2 2E 5D 4D  // 01...*..;..A..]M
    0040: 15 B7 6E 5C 30 35 00 31 32 00 30 30 00 30 31 00  // ..n\05.12.00.01.
    0050: E5 07 0B 05 11 10 2C FF FF 41 4C 41 53 4B 41 41  // ......,..ALASKAA
    0060: 20 4D 20 49 00 00 00 31 00 00 00 FF FF FF FF FF  //  M I...1........
    0070: FF FF FF FF FF FF FF FF FF FF FF FF FF FF FF FF  // ................
    0080: FF FF FF FF FF FF FF FF FF FF FF FF FF FF FF FF  // ................
    0090: FF FF FF FF FF FF FF FF FF FF FF FF              // ............
