/*
 * Intel ACPI Component Architecture
 * AML/ASL+ Disassembler version 20230628 (64-bit version)
 * Copyright (c) 2000 - 2023 Intel Corporation
 * 
 * Disassembling to symbolic ASL+ operators
 *
 * Disassembly of SSDT_00040f.dat, Tue Sep  8 20:10:33 2026
 *
 * Original Table Header:
 *     Signature        "SSDT"
 *     Length           0x0000036F (879)
 *     Revision         0x02
 *     Checksum         0xDB
 *     OEM ID           "GddvDu"
 *     OEM Table ID     "GddvDumm"
 *     OEM Revision     0x00001000 (4096)
 *     Compiler ID      "INTL"
 *     Compiler Version 0x20160422 (538313762)
 */
DefinitionBlock ("", "SSDT", 2, "GddvDu", "GddvDumm", 0x00001000)
{
    External (_SB_.IETM, DeviceObj)

    Scope (\_SB.IETM)
    {
        Name (BDVD, Package (0x01)
        {
            Buffer (0x0313)
            {
                /* 0000 */  0xE5, 0x1F, 0x94, 0x00, 0x00, 0x00, 0x00, 0x02,  // ........
                /* 0008 */  0x00, 0x00, 0x00, 0x40, 0x67, 0x64, 0x64, 0x76,  // ...@gddv
                /* 0010 */  0x00, 0x00, 0x00, 0x00, 0x00, 0x00, 0x00, 0x00,  // ........
                /* 0018 */  0x00, 0x00, 0x00, 0x00, 0x00, 0x00, 0x00, 0x00,  // ........
                /* 0020 */  0x00, 0x00, 0x00, 0x00, 0x00, 0x00, 0x00, 0x00,  // ........
                /* 0028 */  0x00, 0x00, 0x00, 0x00, 0x4F, 0x45, 0x4D, 0x20,  // ....OEM 
                /* 0030 */  0x45, 0x78, 0x70, 0x6F, 0x72, 0x74, 0x65, 0x64,  // Exported
                /* 0038 */  0x20, 0x44, 0x61, 0x74, 0x61, 0x56, 0x61, 0x75,  //  DataVau
                /* 0040 */  0x6C, 0x74, 0x00, 0x00, 0x00, 0x00, 0x00, 0x00,  // lt......
                /* 0048 */  0x00, 0x00, 0x00, 0x00, 0x00, 0x00, 0x00, 0x00,  // ........
                /* 0050 */  0x00, 0x00, 0x00, 0x00, 0x00, 0x00, 0x00, 0x00,  // ........
                /* 0058 */  0x00, 0x00, 0x00, 0x00, 0x00, 0x00, 0x00, 0x00,  // ........
                /* 0060 */  0x00, 0x00, 0x00, 0x00, 0x00, 0x00, 0x00, 0x00,  // ........
                /* 0068 */  0x00, 0x00, 0x00, 0x00, 0x8F, 0x08, 0x13, 0x0B,  // ........
                /* 0070 */  0x1A, 0xF9, 0x8E, 0xB5, 0x39, 0x94, 0xE0, 0x8A,  // ....9...
                /* 0078 */  0xF0, 0x8E, 0xCE, 0x38, 0x80, 0x7F, 0x4C, 0xB7,  // ...8..L.
                /* 0080 */  0x4A, 0xED, 0xE4, 0x6F, 0x3F, 0x5B, 0x1F, 0xC7,  // J..o?[..
                /* 0088 */  0xDF, 0x34, 0xE7, 0x56, 0x7F, 0x02, 0x00, 0x00,  // .4.V....
                /* 0090 */  0x52, 0x45, 0x50, 0x4F, 0x5D, 0x00, 0x00, 0x00,  // REPO]...
                /* 0098 */  0x01, 0xE1, 0x0D, 0x00, 0x00, 0x00, 0x00, 0x00,  // ........
                /* 00A0 */  0x00, 0x00, 0x72, 0x87, 0xCD, 0xFF, 0x6D, 0x24,  // ..r...m$
                /* 00A8 */  0x47, 0xDB, 0x3D, 0x24, 0x92, 0xB4, 0x16, 0x6F,  // G.=$...o
                /* 00B0 */  0x45, 0xD8, 0xC3, 0xF5, 0x66, 0x14, 0x9F, 0x22,  // E...f.."
                /* 00B8 */  0xD7, 0xF7, 0xDE, 0x67, 0x90, 0x9A, 0xA2, 0x0D,  // ...g....
                /* 00C0 */  0x39, 0x25, 0xAD, 0xC3, 0x1A, 0xAD, 0x52, 0x0B,  // 9%....R.
                /* 00C8 */  0x75, 0x38, 0xE1, 0xA4, 0x14, 0x44, 0xEA, 0xD1,  // u8...D..
                /* 00D0 */  0x93, 0x8B, 0x34, 0x41, 0x5F, 0xA1, 0x3C, 0x1B,  // ..4A_.<.
                /* 00D8 */  0xBC, 0x71, 0x4F, 0xC0, 0x3D, 0x2F, 0xC6, 0x4B,  // .qO.=/.K
                /* 00E0 */  0xF9, 0x4D, 0x42, 0x60, 0xFA, 0x7C, 0xA7, 0x93,  // .MB`.|..
                /* 00E8 */  0xC7, 0x92, 0x9C, 0xF4, 0x66, 0xA5, 0x75, 0x96,  // ....f.u.
                /* 00F0 */  0xD2, 0xA1, 0x46, 0xF6, 0x7B, 0xFD, 0x02, 0x3B,  // ..F.{..;
                /* 00F8 */  0x4B, 0xC3, 0x33, 0xAF, 0x52, 0x45, 0x00, 0xB6,  // K.3.RE..
                /* 0100 */  0x53, 0x61, 0xF4, 0x18, 0xF2, 0x5D, 0xF5, 0xA0,  // Sa...]..
                /* 0108 */  0xD4, 0x65, 0x2A, 0x14, 0x8C, 0xA7, 0xDD, 0xF7,  // .e*.....
                /* 0110 */  0x74, 0x33, 0x93, 0x95, 0xF0, 0x8B, 0xDF, 0xA8,  // t3......
                /* 0118 */  0x8C, 0xD4, 0x0B, 0xF8, 0xB7, 0x23, 0x19, 0x4A,  // .....#.J
                /* 0120 */  0x88, 0xAE, 0x20, 0x81, 0x29, 0xFD, 0x8B, 0xC5,  // .. .)...
                /* 0128 */  0x75, 0x96, 0xBF, 0x38, 0x5E, 0xA6, 0x9A, 0x8F,  // u..8^...
                /* 0130 */  0x33, 0xA2, 0xED, 0xAE, 0x86, 0x1B, 0x28, 0xAF,  // 3.....(.
                /* 0138 */  0xF4, 0x5F, 0xB1, 0x47, 0x2B, 0xEF, 0xCC, 0x06,  // ._.G+...
                /* 0140 */  0x32, 0x0C, 0x7A, 0xE7, 0x1C, 0x06, 0x63, 0x26,  // 2.z...c&
                /* 0148 */  0xE7, 0x90, 0x5F, 0x71, 0x15, 0x19, 0x26, 0x89,  // .._q..&.
                /* 0150 */  0x50, 0xD9, 0x1E, 0x06, 0xBB, 0xF7, 0x3A, 0x2A,  // P.....:*
                /* 0158 */  0x66, 0x58, 0xC7, 0xA5, 0x6A, 0xFE, 0x75, 0x83,  // fX..j.u.
                /* 0160 */  0x6C, 0x2A, 0x6B, 0x1E, 0xF2, 0xEE, 0x52, 0x49,  // l*k...RI
                /* 0168 */  0xCF, 0x86, 0xAA, 0x38, 0x4D, 0x21, 0xB2, 0xDD,  // ...8M!..
                /* 0170 */  0x82, 0xB8, 0x15, 0x30, 0x36, 0x6B, 0x03, 0x30,  // ...06k.0
                /* 0178 */  0x02, 0xF6, 0x89, 0xC4, 0xB9, 0xAE, 0xC6, 0xF0,  // ........
                /* 0180 */  0xE9, 0x6D, 0x47, 0xAE, 0xBF, 0x0C, 0x9B, 0xC4,  // .mG.....
                /* 0188 */  0x65, 0x17, 0xF3, 0x63, 0x78, 0x11, 0x84, 0x50,  // e..cx..P
                /* 0190 */  0x53, 0x43, 0x58, 0xD0, 0x48, 0x18, 0x65, 0x32,  // SCX.H.e2
                /* 0198 */  0x81, 0x93, 0xDB, 0xA3, 0x7F, 0xFC, 0xA9, 0xA2,  // ........
                /* 01A0 */  0x35, 0x85, 0x4E, 0x15, 0x8F, 0x64, 0xDB, 0x7A,  // 5.N..d.z
                /* 01A8 */  0xE5, 0x91, 0x30, 0x5B, 0xEF, 0x83, 0xF6, 0xA0,  // ..0[....
                /* 01B0 */  0xB7, 0x2F, 0x72, 0x4E, 0x8C, 0x1B, 0x2B, 0x00,  // ./rN..+.
                /* 01B8 */  0x42, 0x42, 0x38, 0xD3, 0xB3, 0x6B, 0xDA, 0x84,  // BB8..k..
                /* 01C0 */  0xC3, 0x36, 0xAD, 0x7E, 0x79, 0x8C, 0x2C, 0xD3,  // .6.~y.,.
                /* 01C8 */  0x2C, 0x59, 0x5B, 0x1F, 0x06, 0x27, 0xCA, 0xBE,  // ,Y[..'..
                /* 01D0 */  0x1A, 0x20, 0x3B, 0xE5, 0x12, 0x1C, 0x8C, 0x63,  // . ;....c
                /* 01D8 */  0xC2, 0x6E, 0x81, 0xDA, 0x3F, 0x5B, 0xAE, 0x87,  // .n..?[..
                /* 01E0 */  0x79, 0x0A, 0x0B, 0x6C, 0x33, 0x41, 0x7D, 0x76,  // y..l3A}v
                /* 01E8 */  0xD7, 0x67, 0x30, 0xAB, 0x2D, 0xAC, 0x45, 0x22,  // .g0.-.E"
                /* 01F0 */  0x05, 0x01, 0x8C, 0x0B, 0x9E, 0xE0, 0x9D, 0xA8,  // ........
                /* 01F8 */  0x5C, 0x62, 0x0C, 0xF2, 0x67, 0xC7, 0xEB, 0x83,  // \b..g...
                /* 0200 */  0x2D, 0xFA, 0x75, 0x5B, 0x66, 0x0E, 0x1E, 0x3A,  // -.u[f..:
                /* 0208 */  0x14, 0x02, 0x53, 0x3A, 0x1E, 0xDF, 0xD9, 0x7F,  // ..S:....
                /* 0210 */  0xA8, 0x78, 0xD9, 0x28, 0xDD, 0x50, 0x4E, 0x02,  // .x.(.PN.
                /* 0218 */  0x75, 0xB4, 0x3C, 0xA9, 0x8E, 0xDE, 0x99, 0x34,  // u.<....4
                /* 0220 */  0x90, 0xA8, 0xF5, 0xD9, 0xE3, 0x57, 0xBE, 0x90,  // .....W..
                /* 0228 */  0x22, 0x2D, 0x46, 0xB4, 0xE0, 0x30, 0x17, 0x03,  // "-F..0..
                /* 0230 */  0x05, 0xF6, 0x11, 0x41, 0x98, 0xA6, 0x13, 0x94,  // ...A....
                /* 0238 */  0x7D, 0xA5, 0x70, 0xA2, 0x03, 0x9F, 0x2B, 0xD3,  // }.p...+.
                /* 0240 */  0xAF, 0xF7, 0xE5, 0x89, 0x7A, 0x67, 0x8B, 0x4A,  // ....zg.J
                /* 0248 */  0xE3, 0xE1, 0xB5, 0x4F, 0xBB, 0x77, 0xD6, 0xDB,  // ...O.w..
                /* 0250 */  0x01, 0x87, 0x15, 0x2A, 0xAF, 0x49, 0xAA, 0xE4,  // ...*.I..
                /* 0258 */  0x86, 0x63, 0xE5, 0xAF, 0x60, 0x0B, 0x8E, 0x45,  // .c..`..E
                /* 0260 */  0x0B, 0xAA, 0xEA, 0x06, 0x70, 0x5A, 0x5B, 0x7F,  // ....pZ[.
                /* 0268 */  0x13, 0x41, 0x2E, 0x64, 0xA3, 0x45, 0x90, 0x4A,  // .A.d.E.J
                /* 0270 */  0x3D, 0x25, 0x74, 0x4E, 0x07, 0x69, 0xAC, 0x7A,  // =%tN.i.z
                /* 0278 */  0x06, 0xFA, 0xFA, 0x61, 0x9C, 0xAB, 0x36, 0xC2,  // ...a..6.
                /* 0280 */  0xE3, 0xB7, 0xBE, 0x92, 0x8D, 0xA5, 0xC9, 0xE0,  // ........
                /* 0288 */  0x34, 0xFD, 0x33, 0xF8, 0xC6, 0x73, 0x5B, 0x1A,  // 4.3..s[.
                /* 0290 */  0xF6, 0xBD, 0x87, 0x1C, 0x34, 0x27, 0xFB, 0x8F,  // ....4'..
                /* 0298 */  0x9A, 0x69, 0xFB, 0x24, 0x96, 0x46, 0xA7, 0xEC,  // .i.$.F..
                /* 02A0 */  0xA9, 0xBF, 0xA8, 0x29, 0xFF, 0xB2, 0xB5, 0x1F,  // ...)....
                /* 02A8 */  0xFF, 0x7C, 0x0A, 0x9B, 0xA4, 0xB2, 0xD4, 0x58,  // .|.....X
                /* 02B0 */  0x84, 0x65, 0x3A, 0x32, 0x72, 0xE8, 0x03, 0x51,  // .e:2r..Q
                /* 02B8 */  0x7E, 0x00, 0xD1, 0x2F, 0x51, 0x01, 0x09, 0xA3,  // ~../Q...
                /* 02C0 */  0x06, 0xC1, 0x85, 0x53, 0x2A, 0xC2, 0x35, 0x4C,  // ...S*.5L
                /* 02C8 */  0xF9, 0x6C, 0x82, 0x28, 0x42, 0x45, 0xE7, 0xD5,  // .l.(BE..
                /* 02D0 */  0x92, 0xB6, 0xF8, 0x6D, 0xE3, 0x54, 0x9B, 0x24,  // ...m.T.$
                /* 02D8 */  0x85, 0x9B, 0x2A, 0x19, 0xF8, 0x6C, 0xEB, 0x45,  // ..*..l.E
                /* 02E0 */  0x27, 0x7B, 0x7B, 0x49, 0x52, 0xE6, 0x2E, 0xF1,  // '{{IR...
                /* 02E8 */  0xEF, 0xB4, 0x57, 0x0F, 0xC0, 0x15, 0xCD, 0x1C,  // ..W.....
                /* 02F0 */  0x69, 0x86, 0x98, 0x25, 0x63, 0xFC, 0xE0, 0xE8,  // i..%c...
                /* 02F8 */  0x81, 0x85, 0x92, 0x52, 0x57, 0x4D, 0xAF, 0x51,  // ...RWM.Q
                /* 0300 */  0x9F, 0x4C, 0xEA, 0x66, 0xB2, 0x17, 0xD4, 0xCB,  // .L.f....
                /* 0308 */  0xD0, 0xC7, 0x0B, 0xCC, 0x8C, 0x39, 0xEA, 0xC3,  // .....9..
                /* 0310 */  0x1B, 0xF5, 0x30                                 // ..0
            }
        })
        Method (GDDV, 0, Serialized)
        {
            Return (BDVD) /* \_SB_.IETM.BDVD */
        }
    }
}

/*
 * Intel ACPI Component Architecture
 * AML/ASL+ Disassembler version 20230628 (64-bit version)
 * Copyright (c) 2000 - 2023 Intel Corporation
 * 
 * Disassembly of SSDT_00040f.dat, Tue Sep  8 20:10:33 2026
 *
 * ACPI Data Table [ASF!]
 *
 * Format: [HexOffset DecimalOffset ByteLength]  FieldName : FieldValue (in hex)
 */

[000h 0000 004h]                   Signature : "ASF!"    [Alert Standard Format Table]
[004h 0004 004h]                Table Length : 000000A0
[008h 0008 001h]                    Revision : 20
[009h 0009 001h]                    Checksum : 1E
[00Ah 0010 006h]                      Oem ID : "INTEL "
[010h 0016 008h]                Oem Table ID : " HCG"
[018h 0024 004h]                Oem Revision : 00000001
[01Ch 0028 004h]             Asl Compiler ID : "TFSM"
[020h 0032 004h]       Asl Compiler Revision : 000F4240

[024h 0036 001h]               Subtable Type : 00 [ASF Information]
[025h 0037 001h]                    Reserved : 00
[026h 0038 002h]                      Length : 0010
[028h 0040 001h]         Minimum Reset Value : FF
[029h 0041 001h]    Minimum Polling Interval : FF
[02Ah 0042 002h]                   System ID : 0001
[02Ch 0044 004h]             Manufacturer ID : 57010000
[030h 0048 001h]                       Flags : 00
[031h 0049 003h]                    Reserved : 000000

[034h 0052 001h]               Subtable Type : 01 [ASF Alerts]
[035h 0053 001h]                    Reserved : 00
[036h 0054 002h]                      Length : 002C
[038h 0056 001h]                  AssertMask : 00
[039h 0057 001h]                DeassertMask : 00
[03Ah 0058 001h]                 Alert Count : 03
[03Bh 0059 001h]           Alert Data Length : 0C

[03Ch 0060 001h]                     Address : 89
[03Dh 0061 001h]                     Command : 04
[03Eh 0062 001h]                        Mask : 01
[03Fh 0063 001h]                       Value : 01
[040h 0064 001h]                  SensorType : 05
[041h 0065 001h]                        Type : 6F
[042h 0066 001h]                      Offset : 00
[043h 0067 001h]                  SourceType : 68
[044h 0068 001h]                    Severity : 08
[045h 0069 001h]                SensorNumber : 88
[046h 0070 001h]                      Entity : 17
[047h 0071 001h]                    Instance : 00

[048h 0072 001h]                     Address : 89
[049h 0073 001h]                     Command : 04
[04Ah 0074 001h]                        Mask : 04
[04Bh 0075 001h]                       Value : 04
[04Ch 0076 001h]                  SensorType : 07
[04Dh 0077 001h]                        Type : 6F
[04Eh 0078 001h]                      Offset : 00
[04Fh 0079 001h]                  SourceType : 68
[050h 0080 001h]                    Severity : 20
[051h 0081 001h]                SensorNumber : 88
[052h 0082 001h]                      Entity : 03
[053h 0083 001h]                    Instance : 00

[054h 0084 001h]                     Address : 89
[055h 0085 001h]                     Command : 05
[056h 0086 001h]                        Mask : 01
[057h 0087 001h]                       Value : 01
[058h 0088 001h]                  SensorType : 19
[059h 0089 001h]                        Type : 6F
[05Ah 0090 001h]                      Offset : 00
[05Bh 0091 001h]                  SourceType : 68
[05Ch 0092 001h]                    Severity : 20
[05Dh 0093 001h]                SensorNumber : 88
[05Eh 0094 001h]                      Entity : 22
[05Fh 0095 001h]                    Instance : 00

[060h 0096 001h]               Subtable Type : 02 [ASF Remote Control]
[061h 0097 001h]                    Reserved : 00
[062h 0098 002h]                      Length : 0018
[064h 0100 001h]               Control Count : 04
[065h 0101 001h]         Control Data Length : 04
[066h 0102 002h]                    Reserved : 0000

[068h 0104 001h]                    Function : 00
[069h 0105 001h]                     Address : 88
[06Ah 0106 001h]                     Command : 00
[06Bh 0107 001h]                       Value : 03

[06Ch 0108 001h]                    Function : 01
[06Dh 0109 001h]                     Address : 88
[06Eh 0110 001h]                     Command : 00
[06Fh 0111 001h]                       Value : 02

[070h 0112 001h]                    Function : 02
[071h 0113 001h]                     Address : 88
[072h 0114 001h]                     Command : 00
[073h 0115 001h]                       Value : 01

[074h 0116 001h]                    Function : 03
[075h 0117 001h]                     Address : 88
[076h 0118 001h]                     Command : 00
[077h 0119 001h]                       Value : 04

[078h 0120 001h]               Subtable Type : 03 [ASF RMCP Boot Options]
[079h 0121 001h]                    Reserved : 00
[07Ah 0122 002h]                      Length : 0017
[07Ch 0124 007h]                Capabilities : 20 18 00 00 00 13 F0
[083h 0131 001h]             Completion Code : 00
[084h 0132 004h]               Enterprise ID : 57010000
[088h 0136 001h]                     Command : 00
[089h 0137 002h]                   Parameter : 0000
[08Bh 0139 002h]                Boot Options : 0100
[08Dh 0141 002h]              Oem Parameters : 0000

[08Fh 0143 001h]               Subtable Type : 84 [ASF Address]
[090h 0144 001h]                    Reserved : 00
[091h 0145 002h]                      Length : 0011
[093h 0147 001h]               Eprom Address : 00
[094h 0148 001h]                Device Count : 0B
[095h 0149 001h]                   Addresses : 5C 68 88 C2 D2 DC A0 A2 A4 A6 C8 


Raw Table Data: Length 160 (0xA0)

    0000: 41 53 46 21 A0 00 00 00 20 1E 49 4E 54 45 4C 20  // ASF!.... .INTEL 
    0010: 20 48 43 47 00 00 00 00 01 00 00 00 54 46 53 4D  //  HCG........TFSM
    0020: 40 42 0F 00 00 00 10 00 FF FF 01 00 00 00 01 57  // @B.............W
    0030: 00 00 00 00 01 00 2C 00 00 00 03 0C 89 04 01 01  // ......,.........
    0040: 05 6F 00 68 08 88 17 00 89 04 04 04 07 6F 00 68  // .o.h.........o.h
    0050: 20 88 03 00 89 05 01 01 19 6F 00 68 20 88 22 00  //  ........o.h .".
    0060: 02 00 18 00 04 04 00 00 00 88 00 03 01 88 00 02  // ................
    0070: 02 88 00 01 03 88 00 04 03 00 17 00 20 18 00 00  // ............ ...
    0080: 00 13 F0 00 00 00 01 57 00 00 00 00 01 00 00 84  // .......W........
    0090: 00 11 00 00 0B 5C 68 88 C2 D2 DC A0 A2 A4 A6 C8  // .....\h.........
