/*
 * Intel ACPI Component Architecture
 * AML/ASL+ Disassembler version 20230628 (64-bit version)
 * Copyright (c) 2000 - 2023 Intel Corporation
 * 
 * Disassembly of XSDT_00010c.dat, Tue Sep  8 20:10:33 2026
 *
 * ACPI Data Table [XSDT]
 *
 * Format: [HexOffset DecimalOffset ByteLength]  FieldName : FieldValue (in hex)
 */

[000h 0000 004h]                   Signature : "XSDT"    [Extended System Description Table]
[004h 0004 004h]                Table Length : 0000010C
[008h 0008 001h]                    Revision : 01
[009h 0009 001h]                    Checksum : F8
[00Ah 0010 006h]                      Oem ID : "ALASKA"
[010h 0016 008h]                Oem Table ID : "A M I "
[018h 0024 004h]                Oem Revision : 01072009
[01Ch 0028 004h]             Asl Compiler ID : "AMI "
[020h 0032 004h]       Asl Compiler Revision : 00010013

[024h 0036 008h]       ACPI Table Address   0 : 000000008AA12C30
[02Ch 0044 008h]       ACPI Table Address   1 : 000000008AA12D48
[034h 0052 008h]       ACPI Table Address   2 : 000000008AA12DD0
[03Ch 0060 008h]       ACPI Table Address   3 : 000000008AA12E18
[044h 0068 008h]       ACPI Table Address   4 : 000000008AA12EB8
[04Ch 0076 008h]       ACPI Table Address   5 : 000000008AA12EF8
[054h 0084 008h]       ACPI Table Address   6 : 000000008AA13258
[05Ch 0092 008h]       ACPI Table Address   7 : 000000008AA132B0
[064h 0100 008h]       ACPI Table Address   8 : 000000008AA16468
[06Ch 0108 008h]       ACPI Table Address   9 : 000000008AA164A0
[074h 0116 008h]       ACPI Table Address  10 : 000000008AA16DA8
[07Ch 0124 008h]       ACPI Table Address  11 : 000000008AA17958
[084h 0132 008h]       ACPI Table Address  12 : 000000008AA179A0
[08Ch 0140 008h]       ACPI Table Address  13 : 000000008AA19150
[094h 0148 008h]       ACPI Table Address  14 : 000000008AA191E8
[09Ch 0156 008h]       ACPI Table Address  15 : 000000008AA19330
[0A4h 0164 008h]       ACPI Table Address  16 : 000000008AA195D0
[0ACh 0172 008h]       ACPI Table Address  17 : 000000008AA1C5D8
[0B4h 0180 008h]       ACPI Table Address  18 : 000000008AA1CAF0
[0BCh 0188 008h]       ACPI Table Address  19 : 000000008AA1CDE0
[0C4h 0196 008h]       ACPI Table Address  20 : 000000008AA1CE18
[0CCh 0204 008h]       ACPI Table Address  21 : 000000008AA1CE70
[0D4h 0212 008h]       ACPI Table Address  22 : 000000008AA1DDF8
[0DCh 0220 008h]       ACPI Table Address  23 : 000000008AA1DEA0
[0E4h 0228 008h]       ACPI Table Address  24 : 000000008AA1DED8
[0ECh 0236 008h]       ACPI Table Address  25 : 000000008AA1DF10
[0F4h 0244 008h]       ACPI Table Address  26 : 000000008AA28B30
[0FCh 0252 008h]       ACPI Table Address  27 : 000000008AA28EA0
[104h 0260 008h]       ACPI Table Address  28 : 000000008AA28F40

Raw Table Data: Length 268 (0x10C)

    0000: 58 53 44 54 0C 01 00 00 01 F8 41 4C 41 53 4B 41  // XSDT......ALASKA
    0010: 41 20 4D 20 49 20 00 00 09 20 07 01 41 4D 49 20  // A M I ... ..AMI 
    0020: 13 00 01 00 30 2C A1 8A 00 00 00 00 48 2D A1 8A  // ....0,......H-..
    0030: 00 00 00 00 D0 2D A1 8A 00 00 00 00 18 2E A1 8A  // .....-..........
    0040: 00 00 00 00 B8 2E A1 8A 00 00 00 00 F8 2E A1 8A  // ................
    0050: 00 00 00 00 58 32 A1 8A 00 00 00 00 B0 32 A1 8A  // ....X2.......2..
    0060: 00 00 00 00 68 64 A1 8A 00 00 00 00 A0 64 A1 8A  // ....hd.......d..
    0070: 00 00 00 00 A8 6D A1 8A 00 00 00 00 58 79 A1 8A  // .....m......Xy..
    0080: 00 00 00 00 A0 79 A1 8A 00 00 00 00 50 91 A1 8A  // .....y......P...
    0090: 00 00 00 00 E8 91 A1 8A 00 00 00 00 30 93 A1 8A  // ............0...
    00A0: 00 00 00 00 D0 95 A1 8A 00 00 00 00 D8 C5 A1 8A  // ................
    00B0: 00 00 00 00 F0 CA A1 8A 00 00 00 00 E0 CD A1 8A  // ................
    00C0: 00 00 00 00 18 CE A1 8A 00 00 00 00 70 CE A1 8A  // ............p...
    00D0: 00 00 00 00 F8 DD A1 8A 00 00 00 00 A0 DE A1 8A  // ................
    00E0: 00 00 00 00 D8 DE A1 8A 00 00 00 00 10 DF A1 8A  // ................
    00F0: 00 00 00 00 30 8B A2 8A 00 00 00 00 A0 8E A2 8A  // ....0...........
    0100: 00 00 00 00 40 8F A2 8A 00 00 00 00              // ....@.......
